; Function Attrs: nounwind uwtable
define dso_local { i64, i64 } @i128_extend(i64 %0, i64 %1, i32 noundef %2) local_unnamed_addr #0 {
  %4 = tail call i32 @type_kind_bitsize(i32 noundef %2) #19
  %5 = icmp eq i32 %4, 128
  br i1 %5, label %i128_ashr64.exit, label %6

6:                                                ; preds = %3
  %7 = sext i32 %4 to i64
  %8 = sub nsw i64 128, %7
  %9 = icmp ugt i64 %8, 127
  br i1 %9, label %i128_ashr64.exit, label %10

10:                                               ; preds = %6
  %11 = icmp eq i32 %4, 64
  br i1 %11, label %i128_shl64.exit.thread55, label %12

12:                                               ; preds = %10
  %13 = icmp samesign ugt i64 %8, 64
  br i1 %13, label %14, label %17

14:                                               ; preds = %12
  %15 = sub nsw i64 64, %7
  %16 = shl i64 %1, %15
  br label %i128_shl64.exit

17:                                               ; preds = %12
  %18 = shl i64 %0, %8
  %19 = add nsw i64 %7, -64
  %20 = lshr i64 %1, %19
  %21 = add nuw nsw i64 %20, %18
  %22 = shl i64 %1, %8
  br label %i128_shl64.exit

i128_shl64.exit:                                  ; preds = %14, %17
  %.sroa.011.0.i = phi i64 [ %16, %14 ], [ %21, %17 ]
  %.sroa.6.0.i = phi i64 [ 0, %14 ], [ %22, %17 ]
  %23 = add i32 %2, -3
  %24 = icmp ult i32 %23, 5
  br i1 %24, label %27, label %49

i128_shl64.exit.thread55:                         ; preds = %10
  %25 = add i32 %2, -3
  %26 = icmp ult i32 %25, 5
  %.lobit = ashr i64 %1, 63
  %spec.select = select i1 %26, i64 %.lobit, i64 0
  br label %i128_ashr64.exit

27:                                               ; preds = %i128_shl64.exit
  %.not.i = icmp sgt i64 %.sroa.011.0.i, -1
  %28 = icmp samesign ugt i64 %8, 64
  br i1 %.not.i, label %29, label %39

29:                                               ; preds = %27
  br i1 %28, label %30, label %33

30:                                               ; preds = %29
  %31 = sub nsw i64 64, %7
  %32 = lshr i64 %.sroa.011.0.i, %31
  br label %i128_ashr64.exit

33:                                               ; preds = %29
  %34 = lshr i64 %.sroa.6.0.i, %8
  %35 = add nsw i64 %7, -64
  %36 = shl i64 %.sroa.011.0.i, %35
  %37 = add nuw nsw i64 %34, %36
  %38 = lshr i64 %.sroa.011.0.i, %8
  br label %i128_ashr64.exit

39:                                               ; preds = %27
  br i1 %28, label %40, label %43

40:                                               ; preds = %39
  %41 = sub nsw i64 64, %7
  %42 = ashr i64 %.sroa.011.0.i, %41
  br label %i128_ashr64.exit

43:                                               ; preds = %39
  %44 = ashr i64 %.sroa.011.0.i, %8
  %45 = lshr i64 %.sroa.6.0.i, %8
  %46 = add nsw i64 %7, -64
  %47 = shl i64 %.sroa.011.0.i, %46
  %48 = add nuw nsw i64 %45, %47
  br label %i128_ashr64.exit

49:                                               ; preds = %i128_shl64.exit
  %50 = icmp samesign ugt i64 %8, 64
  br i1 %50, label %51, label %54

51:                                               ; preds = %49
  %52 = sub nsw i64 64, %7
  %53 = lshr i64 %.sroa.011.0.i, %52
  br label %i128_ashr64.exit

54:                                               ; preds = %49
  %55 = lshr i64 %.sroa.6.0.i, %8
  %56 = add nsw i64 %7, -64
  %57 = shl i64 %.sroa.011.0.i, %56
  %58 = add nuw nsw i64 %55, %57
  %59 = lshr i64 %.sroa.011.0.i, %8
  br label %i128_ashr64.exit

i128_ashr64.exit:                                 ; preds = %i128_shl64.exit.thread55, %6, %54, %51, %43, %40, %33, %30, %3
  %.pn37 = phi i64 [ %0, %3 ], [ -1, %40 ], [ %44, %43 ], [ 0, %30 ], [ %38, %33 ], [ 0, %51 ], [ %59, %54 ], [ 0, %6 ], [ %spec.select, %i128_shl64.exit.thread55 ]
  %.pn35 = phi i64 [ %1, %3 ], [ %42, %40 ], [ %48, %43 ], [ %32, %30 ], [ %37, %33 ], [ %53, %51 ], [ %58, %54 ], [ 0, %6 ], [ %1, %i128_shl64.exit.thread55 ]
  %.pn = insertvalue { i64, i64 } poison, i64 %.pn37, 0
  %.fca.1.insert.merged = insertvalue { i64, i64 } %.pn, i64 %.pn35, 1
  ret { i64, i64 } %.fca.1.insert.merged
}